; Function Attrs: nounwind uwtable
define internal noundef ptr @datetime_check_time(ptr readnone captures(none) %0, ptr noundef %1) #0 {
  %3 = alloca ptr, align 8
  %4 = alloca i32, align 4
  call void @llvm.lifetime.start.p0(i64 8, ptr nonnull %3) #4
  call void @llvm.lifetime.start.p0(i64 4, ptr nonnull %4) #4
  store i32 0, ptr %4, align 4, !tbaa !22
  %5 = call i32 (ptr, ptr, ...) @PyArg_ParseTuple(ptr noundef %1, ptr noundef nonnull @.str.24, ptr noundef nonnull %3, ptr noundef nonnull %4) #4
  %.not = icmp eq i32 %5, 0
  br i1 %.not, label %PyObject_TypeCheck.exit.thread, label %6

6:                                                ; preds = %2
  %7 = load i32, ptr %4, align 4, !tbaa !22
  %.not2 = icmp eq i32 %7, 0
  %8 = load ptr, ptr %3, align 8, !tbaa !23
  %9 = load ptr, ptr @PyDateTimeAPI, align 8, !tbaa !24
  %10 = getelementptr inbounds nuw i8, ptr %9, i64 16
  %11 = load ptr, ptr %10, align 8, !tbaa !30
  %12 = getelementptr i8, ptr %8, i64 8
  %.val4 = load ptr, ptr %12, align 8, !tbaa !27
  %.not.i = icmp eq ptr %.val4, %11
  br i1 %.not2, label %13, label %PyObject_TypeCheck.exit

13:                                               ; preds = %6
  br i1 %.not.i, label %PyObject_TypeCheck.exit.thread, label %14

14:                                               ; preds = %13
  %15 = call i32 @PyType_IsSubtype(ptr noundef %.val4, ptr noundef %11) #4
  %16 = icmp ne i32 %15, 0
  br label %PyObject_TypeCheck.exit

PyObject_TypeCheck.exit:                          ; preds = %6, %14
  %.in = phi i1 [ %16, %14 ], [ %.not.i, %6 ]
  %.in.fr = freeze i1 %.in
  %spec.select = select i1 %.in.fr, ptr @_Py_TrueStruct, ptr @_Py_FalseStruct
  br label %PyObject_TypeCheck.exit.thread

PyObject_TypeCheck.exit.thread:                   ; preds = %PyObject_TypeCheck.exit, %13, %2
  %.0 = phi ptr [ null, %2 ], [ @_Py_TrueStruct, %13 ], [ %spec.select, %PyObject_TypeCheck.exit ]
  call void @llvm.lifetime.end.p0(i64 4, ptr nonnull %4) #4
  call void @llvm.lifetime.end.p0(i64 8, ptr nonnull %3) #4
  ret ptr %.0
}